(dp0
S'times new roman_bold'
p1
S'/Library/Fonts/Microsoft/Times New Roman Bold.ttf'
p2
sS'calibri_bold_italic'
p3
S'/Library/Fonts/Microsoft/Calibri Bold Italic.ttf'
p4
sS'headlinea'
p5
S'/Library/Fonts/HeadlineA.ttf'
p6
sS'tahoma'
p7
S'/Library/Fonts/Tahoma.ttf'
p8
sS'ms pmincho'
p9
S'/Library/Fonts/Microsoft/MS PMincho.ttf'
p10
sS'skia'
p11
S'/Library/Fonts/Skia.ttf'
p12
sS'franklin gothic medium_italic'
p13
S'/Library/Fonts/Microsoft/Franklin Gothic Medium Italic.ttf'
p14
sS'nadeem'
p15
S'/Library/Fonts/Nadeem.ttf'
p16
sS'kailasa'
p17
S'/Library/Fonts/Kailasa.ttf'
p18
sS'trebuchet ms_italic'
p19
S'/Library/Fonts/Trebuchet MS Italic.ttf'
p20
sS'din alternate_bold'
p21
S'/Library/Fonts/DIN Alternate Bold.ttf'
p22
sS'devanagarimt_bold'
p23
S'/Library/Fonts/DevanagariMTBold.ttf'
p24
sS'calibri'
p25
S'/Library/Fonts/Microsoft/Calibri.ttf'
p26
sS'courier new_italic'
p27
S'/Library/Fonts/Courier New Italic.ttf'
p28
sS'candara_bold'
p29
S'/Library/Fonts/Microsoft/Candara Bold.ttf'
p30
sS'apple lisung light'
p31
S'/Library/Fonts/Apple LiSung Light.ttf'
p32
sS'andale mono'
p33
S'/Library/Fonts/Andale Mono.ttf'
p34
sS'verdana'
p35
S'/Library/Fonts/Microsoft/Verdana.ttf'
p36
sS'tw cen mt_italic'
p37
S'/Library/Fonts/Microsoft/Tw Cen MT Italic.ttf'
p38
sS'arial_italic'
p39
S'/Library/Fonts/Microsoft/Arial Italic.ttf'
p40
sS'himalaya'
p41
S'/Library/Fonts/Microsoft/himalaya.ttf'
p42
sS'georgia_bold'
p43
S'/Library/Fonts/Georgia Bold.ttf'
p44
sS'monbaiti'
p45
S'/Library/Fonts/Microsoft/monbaiti.ttf'
p46
sS'mingliu_hkscs-extb'
p47
S'/Library/Fonts/Microsoft/MingLiU_HKSCS-ExtB.ttf'
p48
sS'taile'
p49
S'/Library/Fonts/Microsoft/taile.ttf'
p50
sS'sathu'
p51
S'/Library/Fonts/Sathu.ttf'
p52
sS'apple ligothic medium'
p53
S'/Library/Fonts/Apple LiGothic Medium.ttf'
p54
sS'consolas'
p55
S'/Library/Fonts/Microsoft/Consolas.ttf'
p56
sS'arial_bold_italic'
p57
S'/Library/Fonts/Microsoft/Arial Bold Italic.ttf'
p58
sS'baghdad'
p59
S'/Library/Fonts/Baghdad.ttf'
p60
sS'arial narrow_bold_italic'
p61
S'/Library/Fonts/Arial Narrow Bold Italic.ttf'
p62
sS'times new roman'
p63
S'/Library/Fonts/Microsoft/Times New Roman.ttf'
p64
sS'consolas_italic'
p65
S'/Library/Fonts/Microsoft/Consolas Italic.ttf'
p66
sS'cambria_italic'
p67
S'/Library/Fonts/Microsoft/Cambria Italic.ttf'
p68
sS'albayan_bold'
p69
S'/Library/Fonts/AlBayanBold.ttf'
p70
sS'impact'
p71
S'/Library/Fonts/Impact.ttf'
p72
sS'kufistandardgk'
p73
S'/Library/Fonts/KufiStandardGK.ttf'
p74
sS'devanagarimt'
p75
S'/Library/Fonts/DevanagariMT.ttf'
p76
sS'candara'
p77
S'/Library/Fonts/Microsoft/Candara.ttf'
p78
sS'ms mincho'
p79
S'/Library/Fonts/Microsoft/MS Mincho.ttf'
p80
sS'simsun'
p81
S'/Library/Fonts/Microsoft/SimSun.ttf'
p82
sS'microsoft sans serif'
p83
S'/Library/Fonts/Microsoft Sans Serif.ttf'
p84
sS'taileb'
p85
S'/Library/Fonts/Microsoft/TaiLeb.ttf'
p86
sS'gabriola'
p87
S'/Library/Fonts/Microsoft/Gabriola.ttf'
p88
sS'lucida sans unicode'
p89
S'/Library/Fonts/Microsoft/Lucida Sans Unicode.ttf'
p90
sS'meiryo'
p91
S'/Library/Fonts/Microsoft/Meiryo.ttf'
p92
sS'verdana_bold'
p93
S'/Library/Fonts/Microsoft/Verdana Bold.ttf'
p94
sS'osaka'
p95
S'/Library/Fonts/Osaka.ttf'
p96
sS'palatino linotype_bold_italic'
p97
S'/Library/Fonts/Microsoft/Palatino Linotype Bold Italic.ttf'
p98
sS'trebuchet ms_bold'
p99
S'/Library/Fonts/Trebuchet MS Bold.ttf'
p100
sS'mshtakan_boldoblique'
p101
S'/Library/Fonts/MshtakanBoldOblique.ttf'
p102
sS'corbel'
p103
S'/Library/Fonts/Microsoft/Corbel.ttf'
p104
sS'candara_italic'
p105
S'/Library/Fonts/Microsoft/Candara Italic.ttf'
p106
sS'franklin gothic book'
p107
S'/Library/Fonts/Microsoft/Franklin Gothic Book.ttf'
p108
sS'consolas_bold_italic'
p109
S'/Library/Fonts/Microsoft/Consolas Bold Italic.ttf'
p110
sS'khmer sangam mn'
p111
S'/Library/Fonts/Khmer Sangam MN.ttf'
p112
sS'ayuthaya'
p113
S'/Library/Fonts/Ayuthaya.ttf'
p114
sS'gill sans mt'
p115
S'/Library/Fonts/Microsoft/Gill Sans MT.ttf'
p116
sS'wingdings 2'
p117
S'/Library/Fonts/Microsoft/Wingdings 2.ttf'
p118
sS'pmingliu'
p119
S'/Library/Fonts/Microsoft/PMingLiU.ttf'
p120
sS'gujaratimt_bold'
p121
S'/Library/Fonts/GujaratiMTBold.ttf'
p122
sS'wingdings'
p123
S'/Library/Fonts/Microsoft/Wingdings.ttf'
p124
sS'arial unicode'
p125
S'/Library/Fonts/Arial Unicode.ttf'
p126
sS'msyi'
p127
S'/Library/Fonts/Microsoft/msyi.ttf'
p128
sS'cambria math'
p129
S'/Library/Fonts/Microsoft/Cambria Math.ttf'
p130
sS'pcmyoungjo'
p131
S'/Library/Fonts/PCmyoungjo.ttf'
p132
sS'constantia'
p133
S'/Library/Fonts/Microsoft/Constantia.ttf'
p134
sS'constantia_bold'
p135
S'/Library/Fonts/Microsoft/Constantia Bold.ttf'
p136
sS'bookshelf symbol 7'
p137
S'/Library/Fonts/Microsoft/Bookshelf Symbol 7.ttf'
p138
sS'meiryo_bold_italic'
p139
S'/Library/Fonts/Microsoft/Meiryo Bold Italic.ttf'
p140
sS'arial'
p141
S'/Library/Fonts/Microsoft/Arial.ttf'
p142
sS'corbel_bold'
p143
S'/Library/Fonts/Microsoft/Corbel Bold.ttf'
p144
sS'courier new_bold_italic'
p145
S'/Library/Fonts/Courier New Bold Italic.ttf'
p146
sS'calibri_bold'
p147
S'/Library/Fonts/Microsoft/Calibri Bold.ttf'
p148
sS'mingliu-extb'
p149
S'/Library/Fonts/Microsoft/MingLiU-ExtB.ttf'
p150
sS'comic sans ms'
p151
S'/Library/Fonts/Comic Sans MS.ttf'
p152
sS'ms pgothic'
p153
S'/Library/Fonts/Microsoft/MS PGothic.ttf'
p154
sS'gurmukhi'
p155
S'/Library/Fonts/Gurmukhi.ttf'
p156
sS'calibri_italic'
p157
S'/Library/Fonts/Microsoft/Calibri Italic.ttf'
p158
sS'pmingliu-extb'
p159
S'/Library/Fonts/Microsoft/PMingLiU-ExtB.ttf'
p160
sS'palatino linotype'
p161
S'/Library/Fonts/Microsoft/Palatino Linotype.ttf'
p162
sS'times new roman_italic'
p163
S'/Library/Fonts/Microsoft/Times New Roman Italic.ttf'
p164
sS'perpetua_bold'
p165
S'/Library/Fonts/Microsoft/Perpetua Bold.ttf'
p166
sS'mshtakanregular'
p167
S'/Library/Fonts/MshtakanRegular.ttf'
p168
sS'lao sangam mn'
p169
S'/Library/Fonts/Lao Sangam MN.ttf'
p170
sS'arial narrow_italic'
p171
S'/Library/Fonts/Arial Narrow Italic.ttf'
p172
sS'simhei'
p173
S'/Library/Fonts/Microsoft/SimHei.ttf'
p174
sS'tw cen mt_bold'
p175
S'/Library/Fonts/Microsoft/Tw Cen MT Bold.ttf'
p176
sS'georgia_bold_italic'
p177
S'/Library/Fonts/Georgia Bold Italic.ttf'
p178
sS'ms gothic'
p179
S'/Library/Fonts/Microsoft/MS Gothic.ttf'
p180
sS'franklin gothic medium'
p181
S'/Library/Fonts/Microsoft/Franklin Gothic Medium.ttf'
p182
sS'palatino linotype_bold'
p183
S'/Library/Fonts/Microsoft/Palatino Linotype Bold.ttf'
p184
sS'perpetua_italic'
p185
S'/Library/Fonts/Microsoft/Perpetua Italic.ttf'
p186
sS'arial black'
p187
S'/Library/Fonts/Arial Black.ttf'
p188
sS'plantagenetcherokee'
p189
S'/Library/Fonts/PlantagenetCherokee.ttf'
p190
sS'mshtakan_italic'
p191
S'/Library/Fonts/MshtakanOblique.ttf'
p192
sS'applegothic'
p193
S'/Library/Fonts/AppleGothic.ttf'
p194
sS'constantia_bold_italic'
p195
S'/Library/Fonts/Microsoft/Constantia Bold Italic.ttf'
p196
sS'courier new_bold'
p197
S'/Library/Fonts/Courier New Bold.ttf'
p198
sS'arial rounded_bold'
p199
S'/Library/Fonts/Arial Rounded Bold.ttf'
p200
sS'gill sans mt_italic'
p201
S'/Library/Fonts/Microsoft/Gill Sans MT Italic.ttf'
p202
sS'meiryo_bold'
p203
S'/Library/Fonts/Microsoft/Meiryo Bold.ttf'
p204
sS'din condensed_bold'
p205
S'/Library/Fonts/DIN Condensed Bold.ttf'
p206
sS'pilgiche'
p207
S'/Library/Fonts/Pilgiche.ttf'
p208
sS'hei'
p209
S'/Library/Fonts/Hei.ttf'
p210
sS'gungseouche'
p211
S'/Library/Fonts/Gungseouche.ttf'
p212
sS'verdana_bold_italic'
p213
S'/Library/Fonts/Microsoft/Verdana Bold Italic.ttf'
p214
sS'gill sans mt_bold_italic'
p215
S'/Library/Fonts/Microsoft/Gill Sans MT Bold Italic.ttf'
p216
sS'applemyungjo'
p217
S'/Library/Fonts/AppleMyungjo.ttf'
p218
sS'arial narrow_bold'
p219
S'/Library/Fonts/Arial Narrow Bold.ttf'
p220
sS'ms reference specialty'
p221
S'/Library/Fonts/Microsoft/MS Reference Specialty.ttf'
p222
sS'consolas_bold'
p223
S'/Library/Fonts/Microsoft/Consolas Bold.ttf'
p224
sS'webdings'
p225
S'/Library/Fonts/Webdings.ttf'
p226
sS'biaukai'
p227
S'/Library/Fonts/BiauKai.ttf'
p228
sS'gill sans mt_bold'
p229
S'/Library/Fonts/Microsoft/Gill Sans MT Bold.ttf'
p230
sS'trebuchet ms_bold_italic'
p231
S'/Library/Fonts/Trebuchet MS Bold Italic.ttf'
p232
sS'simsun-extb'
p233
S'/Library/Fonts/Microsoft/SimSun-ExtB.ttf'
p234
sS'times new roman_bold_italic'
p235
S'/Library/Fonts/Microsoft/Times New Roman Bold Italic.ttf'
p236
sS'tw cen mt_bold_italic'
p237
S'/Library/Fonts/Microsoft/Tw Cen MT Bold Italic.ttf'
p238
sS'georgia'
p239
S'/Library/Fonts/Georgia.ttf'
p240
sS'kokonor'
p241
S'/Library/Fonts/Kokonor.ttf'
p242
sS'krungthep'
p243
S'/Library/Fonts/Krungthep.ttf'
p244
sS'font_families'
p245
(lp246
S'albayan'
p247
ag33
aS'apple chancery'
p248
ag53
ag31
ag193
ag217
ag187
aS'arial narrow'
p249
ag125
ag113
ag59
ag227
aS'bigcaslon'
p250
aS'chalkduster'
p251
ag151
aS'courier new'
p252
aS'decotypenaskh'
p253
ag75
ag239
aS'gujaratimt'
p254
ag211
ag155
ag5
ag209
aS'herculanum'
p255
aS'hoefler text ornaments'
p256
ag71
aS'inaimathi'
p257
aS'kai'
p258
ag17
ag111
ag241
ag243
ag73
ag169
ag83
ag167
aS'myanmar sangam mn'
p259
ag15
aS'nisc18030'
p260
ag95
aS'osakamono'
p261
ag131
ag207
ag189
ag51
aS'silom'
p262
ag11
ag7
aS'trebuchet ms'
p263
ag225
aS'zapfino'
p264
ag141
aS'batang'
p265
ag137
aS'brush script'
p266
ag25
aS'calibril'
p267
ag129
aS'cambria'
p268
ag77
ag55
ag133
ag103
ag107
ag181
ag87
ag115
aS'gulim'
p269
ag41
aS'lucida console'
p270
ag89
aS'marlett'
p271
ag91
ag149
aS'mingliu'
p272
ag47
aS'mingliu_hkscs'
p273
ag45
ag179
ag79
ag153
ag9
aS'ms reference sans serif'
p274
ag221
ag127
ag161
aS'perpetua'
p275
ag159
ag119
ag173
ag233
ag81
ag49
ag85
ag63
aS'tw cen mt'
p276
ag35
ag117
aS'wingdings 3'
p277
ag123
asg248
S'/Library/Fonts/Apple Chancery.ttf'
p278
sg257
S'/Library/Fonts/InaiMathi.ttf'
p279
sg267
S'/Library/Fonts/Microsoft/Calibril.ttf'
p280
sg273
S'/Library/Fonts/Microsoft/mingliu_hkscs.ttf'
p281
sg253
S'/Library/Fonts/DecoTypeNaskh.ttf'
p282
sg249
S'/Library/Fonts/Arial Narrow.ttf'
p283
sg261
S'/Library/Fonts/OsakaMono.ttf'
p284
sg251
S'/Library/Fonts/Chalkduster.ttf'
p285
sg255
S'/Library/Fonts/Herculanum.ttf'
p286
sg270
S'/Library/Fonts/Microsoft/Lucida Console.ttf'
p287
sS'verdana_italic'
p288
S'/Library/Fonts/Microsoft/Verdana Italic.ttf'
p289
sg277
S'/Library/Fonts/Microsoft/Wingdings 3.ttf'
p290
sg259
S'/Library/Fonts/Myanmar Sangam MN.ttf'
p291
sg260
S'/Library/Fonts/NISC18030.ttf'
p292
sg274
S'/Library/Fonts/Microsoft/MS Reference Sans Serif.ttf'
p293
sg252
S'/Library/Fonts/Courier New.ttf'
p294
sS'corbel_italic'
p295
S'/Library/Fonts/Microsoft/Corbel Italic.ttf'
p296
sS'arial_bold'
p297
S'/Library/Fonts/Microsoft/Arial Bold.ttf'
p298
sS'tahoma_bold'
p299
S'/Library/Fonts/Tahoma Bold.ttf'
p300
sg262
S'/Library/Fonts/Silom.ttf'
p301
sS'candara_bold_italic'
p302
S'/Library/Fonts/Microsoft/Candara Bold Italic.ttf'
p303
sS'cambria_bold_italic'
p304
S'/Library/Fonts/Microsoft/Cambria Bold Italic.ttf'
p305
sS'perpetua_bold_italic'
p306
S'/Library/Fonts/Microsoft/Perpetua Bold Italic.ttf'
p307
sS'constantia_italic'
p308
S'/Library/Fonts/Microsoft/Constantia Italic.ttf'
p309
sg258
S'/Library/Fonts/Kai.ttf'
p310
sg247
S'/Library/Fonts/AlBayan.ttf'
p311
sS'comic sans ms_bold'
p312
S'/Library/Fonts/Comic Sans MS Bold.ttf'
p313
sg275
S'/Library/Fonts/Microsoft/Perpetua.ttf'
p314
sg268
S'/Library/Fonts/Microsoft/Cambria.ttf'
p315
sg269
S'/Library/Fonts/Microsoft/Gulim.ttf'
p316
sg272
S'/Library/Fonts/Microsoft/MingLiU.ttf'
p317
sg265
S'/Library/Fonts/Microsoft/Batang.ttf'
p318
sS'corbel_bold_italic'
p319
S'/Library/Fonts/Microsoft/Corbel Bold Italic.ttf'
p320
sg263
S'/Library/Fonts/Trebuchet MS.ttf'
p321
sg250
S'/Library/Fonts/BigCaslon.ttf'
p322
sg264
S'/Library/Fonts/Zapfino.ttf'
p323
sS'palatino linotype_italic'
p324
S'/Library/Fonts/Microsoft/Palatino Linotype Italic.ttf'
p325
sg254
S'/Library/Fonts/GujaratiMT.ttf'
p326
sS'meiryo_italic'
p327
S'/Library/Fonts/Microsoft/Meiryo Italic.ttf'
p328
sS'franklin gothic book_italic'
p329
S'/Library/Fonts/Microsoft/Franklin Gothic Book Italic.ttf'
p330
sg276
S'/Library/Fonts/Microsoft/Tw Cen MT.ttf'
p331
sS'mshtakan_bold'
p332
S'/Library/Fonts/MshtakanBold.ttf'
p333
sS'georgia_italic'
p334
S'/Library/Fonts/Georgia Italic.ttf'
p335
sg271
S'/Library/Fonts/Microsoft/Marlett.ttf'
p336
sg256
S'/Library/Fonts/Hoefler Text Ornaments.ttf'
p337
sS'cambria_bold'
p338
S'/Library/Fonts/Microsoft/Cambria Bold.ttf'
p339
sg266
S'/Library/Fonts/Microsoft/Brush Script.ttf'
p340
s.