(dp0
S'headlinea'
p1
S'/Library/Fonts/HeadlineA.ttf'
p2
sS'tahoma'
p3
S'/Library/Fonts/Tahoma.ttf'
p4
sS'skia'
p5
S'/Library/Fonts/Skia.ttf'
p6
sS'nadeem'
p7
S'/Library/Fonts/Nadeem.ttf'
p8
sS'kailasa'
p9
S'/Library/Fonts/Kailasa.ttf'
p10
sS'trebuchet ms_italic'
p11
S'/Library/Fonts/Trebuchet MS Italic.ttf'
p12
sS'din alternate_bold'
p13
S'/Library/Fonts/DIN Alternate Bold.ttf'
p14
sS'devanagarimt_bold'
p15
S'/Library/Fonts/DevanagariMTBold.ttf'
p16
sS'arial'
p17
S'/Library/Fonts/Arial.ttf'
p18
sS'apple lisung light'
p19
S'/Library/Fonts/Apple LiSung Light.ttf'
p20
sS'andale mono'
p21
S'/Library/Fonts/Andale Mono.ttf'
p22
sS'verdana'
p23
S'/Library/Fonts/Verdana.ttf'
p24
sS'arial_italic'
p25
S'/Library/Fonts/Arial Italic.ttf'
p26
sS'georgia_bold'
p27
S'/Library/Fonts/Georgia Bold.ttf'
p28
sS'sathu'
p29
S'/Library/Fonts/Sathu.ttf'
p30
sS'apple ligothic medium'
p31
S'/Library/Fonts/Apple LiGothic Medium.ttf'
p32
sS'arial_bold_italic'
p33
S'/Library/Fonts/Arial Bold Italic.ttf'
p34
sS'baghdad'
p35
S'/Library/Fonts/Baghdad.ttf'
p36
sS'arial narrow_bold_italic'
p37
S'/Library/Fonts/Arial Narrow Bold Italic.ttf'
p38
sS'times new roman'
p39
S'/Library/Fonts/Times New Roman.ttf'
p40
sS'times new roman_italic'
p41
S'/Library/Fonts/Times New Roman Italic.ttf'
p42
sS'albayan_bold'
p43
S'/Library/Fonts/AlBayanBold.ttf'
p44
sS'impact'
p45
S'/Library/Fonts/Impact.ttf'
p46
sS'kufistandardgk'
p47
S'/Library/Fonts/KufiStandardGK.ttf'
p48
sS'devanagarimt'
p49
S'/Library/Fonts/DevanagariMT.ttf'
p50
sS'microsoft sans serif'
p51
S'/Library/Fonts/Microsoft Sans Serif.ttf'
p52
sS'arial unicode'
p53
S'/Library/Fonts/Arial Unicode.ttf'
p54
sS'osaka'
p55
S'/Library/Fonts/Osaka.ttf'
p56
sS'trebuchet ms_bold'
p57
S'/Library/Fonts/Trebuchet MS Bold.ttf'
p58
sS'mshtakan_boldoblique'
p59
S'/Library/Fonts/MshtakanBoldOblique.ttf'
p60
sS'khmer sangam mn'
p61
S'/Library/Fonts/Khmer Sangam MN.ttf'
p62
sS'ayuthaya'
p63
S'/Library/Fonts/Ayuthaya.ttf'
p64
sS'wingdings 3'
p65
S'/Library/Fonts/Wingdings 3.ttf'
p66
sS'wingdings 2'
p67
S'/Library/Fonts/Wingdings 2.ttf'
p68
sS'times new roman_bold'
p69
S'/Library/Fonts/Times New Roman Bold.ttf'
p70
sS'gujaratimt_bold'
p71
S'/Library/Fonts/GujaratiMTBold.ttf'
p72
sS'wingdings'
p73
S'/Library/Fonts/Wingdings.ttf'
p74
sS'verdana_bold'
p75
S'/Library/Fonts/Verdana Bold.ttf'
p76
sS'pcmyoungjo'
p77
S'/Library/Fonts/PCmyoungjo.ttf'
p78
sS'courier new_italic'
p79
S'/Library/Fonts/Courier New Italic.ttf'
p80
sS'times new roman_bold_italic'
p81
S'/Library/Fonts/Times New Roman Bold Italic.ttf'
p82
sS'comic sans ms'
p83
S'/Library/Fonts/Comic Sans MS.ttf'
p84
sS'gurmukhi'
p85
S'/Library/Fonts/Gurmukhi.ttf'
p86
sS'mshtakanregular'
p87
S'/Library/Fonts/MshtakanRegular.ttf'
p88
sS'lao sangam mn'
p89
S'/Library/Fonts/Lao Sangam MN.ttf'
p90
sS'arial narrow_italic'
p91
S'/Library/Fonts/Arial Narrow Italic.ttf'
p92
sS'georgia_bold_italic'
p93
S'/Library/Fonts/Georgia Bold Italic.ttf'
p94
sS'arial black'
p95
S'/Library/Fonts/Arial Black.ttf'
p96
sS'plantagenetcherokee'
p97
S'/Library/Fonts/PlantagenetCherokee.ttf'
p98
sS'mshtakan_italic'
p99
S'/Library/Fonts/MshtakanOblique.ttf'
p100
sS'applegothic'
p101
S'/Library/Fonts/AppleGothic.ttf'
p102
sS'courier new_bold'
p103
S'/Library/Fonts/Courier New Bold.ttf'
p104
sS'arial rounded_bold'
p105
S'/Library/Fonts/Arial Rounded Bold.ttf'
p106
sS'din condensed_bold'
p107
S'/Library/Fonts/DIN Condensed Bold.ttf'
p108
sS'pilgiche'
p109
S'/Library/Fonts/Pilgiche.ttf'
p110
sS'hei'
p111
S'/Library/Fonts/Hei.ttf'
p112
sS'gungseouche'
p113
S'/Library/Fonts/Gungseouche.ttf'
p114
sS'applemyungjo'
p115
S'/Library/Fonts/AppleMyungjo.ttf'
p116
sS'arial narrow_bold'
p117
S'/Library/Fonts/Arial Narrow Bold.ttf'
p118
sS'webdings'
p119
S'/Library/Fonts/Webdings.ttf'
p120
sS'biaukai'
p121
S'/Library/Fonts/BiauKai.ttf'
p122
sS'trebuchet ms_bold_italic'
p123
S'/Library/Fonts/Trebuchet MS Bold Italic.ttf'
p124
sS'courier new_bold_italic'
p125
S'/Library/Fonts/Courier New Bold Italic.ttf'
p126
sS'georgia'
p127
S'/Library/Fonts/Georgia.ttf'
p128
sS'kokonor'
p129
S'/Library/Fonts/Kokonor.ttf'
p130
sS'krungthep'
p131
S'/Library/Fonts/Krungthep.ttf'
p132
sS'font_families'
p133
(lp134
S'albayan'
p135
ag21
aS'apple chancery'
p136
ag31
ag19
ag101
ag115
ag95
aS'arial narrow'
p137
ag53
ag17
ag63
ag35
ag121
aS'bigcaslon'
p138
aS'brush script'
p139
aS'chalkduster'
p140
ag83
aS'courier new'
p141
aS'decotypenaskh'
p142
ag49
ag127
aS'gujaratimt'
p143
ag113
ag85
ag1
ag111
aS'herculanum'
p144
aS'hoefler text ornaments'
p145
ag45
aS'inaimathi'
p146
aS'kai'
p147
ag9
ag61
ag129
ag131
ag47
ag89
ag51
ag87
aS'myanmar sangam mn'
p148
ag7
aS'nisc18030'
p149
ag55
aS'osakamono'
p150
ag77
ag109
ag97
ag29
aS'silom'
p151
ag5
ag3
ag39
aS'trebuchet ms'
p152
ag23
ag119
ag67
ag65
ag73
aS'zapfino'
p153
asg136
S'/Library/Fonts/Apple Chancery.ttf'
p154
sg146
S'/Library/Fonts/InaiMathi.ttf'
p155
sg142
S'/Library/Fonts/DecoTypeNaskh.ttf'
p156
sg137
S'/Library/Fonts/Arial Narrow.ttf'
p157
sg150
S'/Library/Fonts/OsakaMono.ttf'
p158
sg140
S'/Library/Fonts/Chalkduster.ttf'
p159
sg144
S'/Library/Fonts/Herculanum.ttf'
p160
sS'verdana_italic'
p161
S'/Library/Fonts/Verdana Italic.ttf'
p162
sg148
S'/Library/Fonts/Myanmar Sangam MN.ttf'
p163
sg149
S'/Library/Fonts/NISC18030.ttf'
p164
sg141
S'/Library/Fonts/Courier New.ttf'
p165
sS'arial_bold'
p166
S'/Library/Fonts/Arial Bold.ttf'
p167
sS'tahoma_bold'
p168
S'/Library/Fonts/Tahoma Bold.ttf'
p169
sg151
S'/Library/Fonts/Silom.ttf'
p170
sg147
S'/Library/Fonts/Kai.ttf'
p171
sg135
S'/Library/Fonts/AlBayan.ttf'
p172
sS'comic sans ms_bold'
p173
S'/Library/Fonts/Comic Sans MS Bold.ttf'
p174
sg152
S'/Library/Fonts/Trebuchet MS.ttf'
p175
sg138
S'/Library/Fonts/BigCaslon.ttf'
p176
sg153
S'/Library/Fonts/Zapfino.ttf'
p177
sS'verdana_bold_italic'
p178
S'/Library/Fonts/Verdana Bold Italic.ttf'
p179
sg143
S'/Library/Fonts/GujaratiMT.ttf'
p180
sS'mshtakan_bold'
p181
S'/Library/Fonts/MshtakanBold.ttf'
p182
sS'georgia_italic'
p183
S'/Library/Fonts/Georgia Italic.ttf'
p184
sg145
S'/Library/Fonts/Hoefler Text Ornaments.ttf'
p185
sg139
S'/Library/Fonts/Brush Script.ttf'
p186
s.